; Function Attrs: nounwind uwtable
define void @Saig_ManBmcTerSimTestPo(ptr noundef readonly captures(none) %0) local_unnamed_addr #0 {
  %2 = tail call ptr @Saig_ManBmcTerSimPo(ptr noundef %0)
  %3 = icmp eq ptr %2, null
  br i1 %3, label %Vec_PtrFreeFree.exit, label %4

4:                                                ; preds = %1
  %5 = getelementptr i8, ptr %2, i64 4
  %.val1415.i.i = load i32, ptr %5, align 4, !tbaa !32
  %6 = icmp sgt i32 %.val1415.i.i, 0
  %7 = getelementptr i8, ptr %2, i64 8
  %.val.i.i = load ptr, ptr %7, align 8, !tbaa !23
  br i1 %6, label %.lr.ph.i.i, label %Vec_PtrFreeData.exit.i

.lr.ph.i.i:                                       ; preds = %4
  %8 = zext nneg i32 %.val1415.i.i to i64
  br label %9

9:                                                ; preds = %13, %.lr.ph.i.i
  %indvars.iv.i.i = phi i64 [ 0, %.lr.ph.i.i ], [ %indvars.iv.next.i.i, %13 ]
  %10 = getelementptr inbounds nuw ptr, ptr %.val.i.i, i64 %indvars.iv.i.i
  %11 = load ptr, ptr %10, align 8, !tbaa !25
  %switch.i.i = icmp ult ptr %11, inttoptr (i64 3 to ptr)
  br i1 %switch.i.i, label %13, label %12

12:                                               ; preds = %9
  tail call void @free(ptr noundef %11) #24
  br label %13

13:                                               ; preds = %12, %9
  %indvars.iv.next.i.i = add nuw nsw i64 %indvars.iv.i.i, 1
  %exitcond.not = icmp eq i64 %indvars.iv.next.i.i, %8
  br i1 %exitcond.not, label %Vec_PtrFreeData.exit.i.thread, label %9, !llvm.loop !45

Vec_PtrFreeData.exit.i:                           ; preds = %4
  %.not.i.i = icmp eq ptr %.val.i.i, null
  br i1 %.not.i.i, label %Vec_PtrFree.exit.i, label %Vec_PtrFreeData.exit.i.thread

Vec_PtrFreeData.exit.i.thread:                    ; preds = %13, %Vec_PtrFreeData.exit.i
  tail call void @free(ptr noundef nonnull %.val.i.i) #24
  br label %Vec_PtrFree.exit.i

Vec_PtrFree.exit.i:                               ; preds = %Vec_PtrFreeData.exit.i.thread, %Vec_PtrFreeData.exit.i
  tail call void @free(ptr noundef nonnull %2) #24
  br label %Vec_PtrFreeFree.exit

Vec_PtrFreeFree.exit:                             ; preds = %1, %Vec_PtrFree.exit.i
  ret void
}